; Function Attrs: mustprogress uwtable
define internal void @_ZN4leanL10eta_expandERKNS_16elab_environmentERKNS_4exprE(ptr dead_on_unwind noalias writable sret(%"class.lean::expr") align 8 %0, ptr noundef nonnull align 8 dereferenceable(8) %1, ptr noundef nonnull align 8 dereferenceable(8) %2) #0 personality ptr @__gxx_personality_v0 {
  %4 = alloca %"class.lean::local_ctx", align 8
  %5 = alloca %"class.lean::type_checker", align 8
  %6 = alloca %"class.lean::environment", align 8
  call void @llvm.lifetime.start.p0(i64 48, ptr nonnull %5) #18
  call void @llvm.lifetime.start.p0(i64 8, ptr nonnull %6) #18
  call void @_ZNK4lean16elab_environment13to_kernel_envEv(ptr dead_on_unwind nonnull writable sret(%"class.lean::environment") align 8 %6, ptr noundef nonnull align 8 dereferenceable(8) %1)
  call void @llvm.lifetime.start.p0(i64 8, ptr nonnull %4) #18
  invoke void @_ZN4lean9local_ctxC1Ev(ptr noundef nonnull align 8 dereferenceable(8) %4)
          to label %.noexc unwind label %38

.noexc:                                           ; preds = %3
  invoke void @_ZN4lean12type_checkerC2ERKNS_11environmentERKNS_9local_ctxEPNS_11diagnosticsENS_17definition_safetyE(ptr noundef nonnull align 8 dereferenceable(48) %5, ptr noundef nonnull align 8 dereferenceable(8) %6, ptr noundef nonnull align 8 dereferenceable(8) %4, ptr noundef null, i32 noundef 1)
          to label %7 unwind label %21

7:                                                ; preds = %.noexc
  %8 = load ptr, ptr %4, align 8, !tbaa !13
  %9 = ptrtoint ptr %8 to i64
  %10 = and i64 %9, 1
  %.not.i.i.i = icmp eq i64 %10, 0
  br i1 %.not.i.i.i, label %11, label %23

11:                                               ; preds = %7
  %12 = load i32, ptr %8, align 4, !tbaa !25
  %13 = icmp sgt i32 %12, 1
  br i1 %13, label %14, label %16, !prof !28

14:                                               ; preds = %11
  %15 = add nsw i32 %12, -1
  store i32 %15, ptr %8, align 4, !tbaa !25
  br label %23

16:                                               ; preds = %11
  %.not.i.i.i.i = icmp eq i32 %12, 0
  br i1 %.not.i.i.i.i, label %23, label %17

17:                                               ; preds = %16
  invoke void @lean_dec_ref_cold(ptr noundef nonnull %8)
          to label %23 unwind label %18

18:                                               ; preds = %17
  %19 = landingpad { ptr, i32 }
          catch ptr null
  %20 = extractvalue { ptr, i32 } %19, 0
  call void @__clang_call_terminate(ptr %20) #20
  unreachable

21:                                               ; preds = %.noexc
  %22 = landingpad { ptr, i32 }
          cleanup
  call void @_ZN4lean10object_refD2Ev(ptr noundef nonnull align 8 dereferenceable(8) %4) #18
  call void @llvm.lifetime.end.p0(i64 8, ptr nonnull %4) #18
  br label %.body

23:                                               ; preds = %17, %16, %14, %7
  call void @llvm.lifetime.end.p0(i64 8, ptr nonnull %4) #18
  invoke void @_ZN4lean12type_checker10eta_expandERKNS_4exprE(ptr dead_on_unwind writable sret(%"class.lean::expr") align 8 %0, ptr noundef nonnull align 8 dereferenceable(48) %5, ptr noundef nonnull align 8 dereferenceable(8) %2)
          to label %24 unwind label %40

24:                                               ; preds = %23
  call void @_ZN4lean12type_checkerD1Ev(ptr noundef nonnull align 8 dereferenceable(48) %5) #18
  %25 = load ptr, ptr %6, align 8, !tbaa !13
  %26 = ptrtoint ptr %25 to i64
  %27 = and i64 %26, 1
  %.not.i.i = icmp eq i64 %27, 0
  br i1 %.not.i.i, label %28, label %_ZN4lean10object_refD2Ev.exit

28:                                               ; preds = %24
  %29 = load i32, ptr %25, align 4, !tbaa !25
  %30 = icmp sgt i32 %29, 1
  br i1 %30, label %31, label %33, !prof !28

31:                                               ; preds = %28
  %32 = add nsw i32 %29, -1
  store i32 %32, ptr %25, align 4, !tbaa !25
  br label %_ZN4lean10object_refD2Ev.exit

33:                                               ; preds = %28
  %.not.i.i.i5 = icmp eq i32 %29, 0
  br i1 %.not.i.i.i5, label %_ZN4lean10object_refD2Ev.exit, label %34

34:                                               ; preds = %33
  invoke void @lean_dec_ref_cold(ptr noundef nonnull %25)
          to label %_ZN4lean10object_refD2Ev.exit unwind label %35

35:                                               ; preds = %34
  %36 = landingpad { ptr, i32 }
          catch ptr null
  %37 = extractvalue { ptr, i32 } %36, 0
  call void @__clang_call_terminate(ptr %37) #20
  unreachable

_ZN4lean10object_refD2Ev.exit:                    ; preds = %24, %31, %33, %34
  call void @llvm.lifetime.end.p0(i64 8, ptr nonnull %6) #18
  call void @llvm.lifetime.end.p0(i64 48, ptr nonnull %5) #18
  ret void

38:                                               ; preds = %3
  %39 = landingpad { ptr, i32 }
          cleanup
  br label %.body

40:                                               ; preds = %23
  %41 = landingpad { ptr, i32 }
          cleanup
  call void @_ZN4lean12type_checkerD1Ev(ptr noundef nonnull align 8 dereferenceable(48) %5) #18
  br label %.body

.body:                                            ; preds = %38, %21, %40
  %.pn = phi { ptr, i32 } [ %41, %40 ], [ %39, %38 ], [ %22, %21 ]
  call void @_ZN4lean10object_refD2Ev(ptr noundef nonnull align 8 dereferenceable(8) %6) #18
  call void @llvm.lifetime.end.p0(i64 8, ptr nonnull %6) #18
  call void @llvm.lifetime.end.p0(i64 48, ptr nonnull %5) #18
  resume { ptr, i32 } %.pn
}